; Function Attrs: nounwind uwtable
define internal noundef i32 @dissect_control_process_exist_request(ptr noundef readonly captures(none) %0, ptr noundef %1, ptr noundef %2, i32 noundef %3, i32 %4, i32 noundef %5) #0 {
  %7 = load i32, ptr @hf_ctdb_pid, align 4
  %8 = tail call ptr @proto_tree_add_item(ptr noundef %1, i32 noundef %7, ptr noundef %2, i32 noundef %3, i32 noundef 4, i32 noundef %5) #4
  %.not = icmp eq i32 %5, 0
  br i1 %.not, label %11, label %9

9:                                                ; preds = %6
  %10 = tail call i32 @tvb_get_letohl(ptr noundef %2, i32 noundef %3) #4
  br label %13

11:                                               ; preds = %6
  %12 = tail call i32 @tvb_get_ntohl(ptr noundef %2, i32 noundef %3) #4
  br label %13

13:                                               ; preds = %11, %9
  %.0 = phi i32 [ %10, %9 ], [ %12, %11 ]
  %14 = add i32 %3, 4
  %15 = getelementptr inbounds nuw i8, ptr %0, i64 8
  %16 = load ptr, ptr %15, align 8
  tail call void (ptr, i32, ptr, ...) @col_append_fstr(ptr noundef %16, i32 noundef 25, ptr noundef nonnull @.str.257, i32 noundef %.0) #4
  ret i32 %14
}